(ccopy_reg
_reconstructor
p0
(corigami_utils
vhelix_vbase_to_nucleotide
p1
c__builtin__
object
p2
Ntp3
Rp4
(dp5
S'strand_count'
p6
I0
sS'nuc_count'
p7
I0
sS'_stap'
p8
(dp9
(I0
I86
tp10
(I21
(lp11
I1072
atp12
s(I5
I31
tp13
(I12
(lp14
I662
atp15
s(I3
I35
tp16
(I18
(lp17
I949
atp18
s(I0
I175
tp19
(I16
(lp20
I852
atp21
s(I3
I170
tp22
(I15
(lp23
I793
atp24
s(I5
I178
tp25
(I16
(lp26
I848
atp27
s(I0
I76
tp28
(I13
(lp29
I742
atp30
s(I5
I57
tp31
(I13
(lp32
I706
atp33
s(I3
I176
tp34
(I26
(lp35
I1284
atp36
s(I1
I64
tp37
(I18
(lp38
I906
atp39
s(I0
I98
tp40
(I22
(lp41
I1105
atp42
s(I5
I74
tp43
(I13
(lp44
I689
atp45
s(I3
I86
tp46
(I21
(lp47
I1067
atp48
s(I1
I122
tp49
(I14
(lp50
I781
atp51
s(I1
I133
tp52
(I14
(lp53
I770
atp54
s(I5
I84
tp55
(I21
(lp56
I1083
atp57
s(I3
I124
tp58
(I24
(lp59
I1188
atp60
s(I1
I28
tp61
(I12
(lp62
I679
atp63
s(I0
I55
tp64
(I13
(lp65
I721
atp66
s(I1
I191
tp67
(I26
(lp68
I1255
atp69
s(I5
I126
tp70
(I23
(lp71
I1144
atp72
s(I0
I128
tp73
(I23
(lp74
I1133
atp75
s(I1
I54
tp76
(I18
(lp77
I916
atp78
s(I3
I141
tp79
(I24
(lp80
I1171
atp81
s(I5
I145
tp82
(I25
(lp83
I1248
atp84
s(I0
I45
tp85
(I19
(lp86
I988
atp87
s(I5
I24
tp88
(I17
(lp89
I897
atp90
s(I3
I40
tp91
(I18
(lp92
I944
atp93
s(I0
I166
tp94
(I25
(lp95
I1210
atp96
s(I1
I40
tp97
(I18
(lp98
I930
atp99
s(I3
I147
tp100
(I15
(lp101
I816
atp102
s(I0
I67
tp103
(I13
(lp104
I733
atp105
s(I5
I34
tp106
(I12
(lp107
I659
atp108
s(I3
I185
tp109
(I26
(lp110
I1275
atp111
s(I1
I89
tp112
(I20
(lp113
I1018
atp114
s(I0
I121
tp115
(I23
(lp116
I1126
atp117
s(I3
I95
tp118
(I21
(lp119
I1058
atp120
s(I1
I115
tp121
(I14
(lp122
I788
atp123
s(I1
I158
tp124
(I15
(lp125
I833
atp126
s(I5
I93
tp127
(I22
(lp128
I1095
atp129
s(I3
I101
tp130
(I21
(lp131
I1052
atp132
s(I1
I176
tp133
(I16
(lp134
I864
atp135
s(I5
I103
tp136
(I22
(lp137
I1085
atp138
s(I0
I135
tp139
(I14
(lp140
I759
atp141
s(I5
I154
tp142
(I25
(lp143
I1239
atp144
s(I0
I36
tp145
(I18
(lp146
I937
atp147
s(I1
I170
tp148
(I16
(lp149
I870
atp150
s(I1
I33
tp151
(I12
(lp152
I674
atp153
s(I3
I152
tp154
(I15
(lp155
I811
atp156
s(I5
I164
tp157
(I25
(lp158
I1229
atp159
s(I0
I90
tp160
(I21
(lp161
I1076
atp162
s(I5
I43
tp163
(I19
(lp164
I997
atp165
s(I3
I55
tp166
(I19
(lp167
I971
atp168
s(I1
I82
tp169
(I20
(lp170
I1025
atp171
s(I5
I53
tp172
(I13
(lp173
I710
atp174
s(I3
I68
tp175
(I19
(lp176
I958
atp177
s(I1
I116
tp178
(I14
(lp179
I787
atp180
s(I1
I151
tp181
(I15
(lp182
I840
atp183
s(I5
I70
tp184
(I13
(lp185
I693
atp186
s(I3
I106
tp187
(I21
(lp188
I1047
atp189
s(I1
I137
tp190
(I14
(lp191
I766
atp192
s(I5
I96
tp193
(I22
(lp194
I1092
atp195
s(I0
I158
tp196
(I15
(lp197
I828
atp198
s(I5
I131
tp199
(I23
(lp200
I1139
atp201
s(I0
I59
tp202
(I13
(lp203
I725
atp204
s(I1
I163
tp205
(I25
(lp206
I1202
atp207
s(I3
I22
tp208
(I17
(lp209
I885
atp210
s(I0
I180
tp211
(I16
(lp212
I857
atp213
s(I1
I58
tp214
(I18
(lp215
I912
atp216
s(I3
I129
tp217
(I24
(lp218
I1183
atp219
s(I5
I173
tp220
(I25
(lp221
I1220
atp222
s(I0
I81
tp223
(I20
(lp224
I1035
atp225
s(I3
I60
tp226
(I19
(lp227
I966
atp228
s(I0
I170
tp229
(I25
(lp230
I1214
atp231
s(I3
I167
tp232
(I15
(lp233
I796
atp234
s(I0
I119
tp235
(I23
(lp236
I1124
atp237
s(I5
I62
tp238
(I13
(lp239
I701
atp240
s(I3
I77
tp241
(I20
(lp242
I1044
atp243
s(I1
I77
tp244
(I20
(lp245
I1030
atp246
s(I0
I109
tp247
(I22
(lp248
I1116
atp249
s(I5
I79
tp250
(I13
(lp251
I684
atp252
s(I3
I83
tp253
(I20
(lp254
I1038
atp255
s(I1
I103
tp256
(I20
(lp257
I1004
atp258
s(I0
I28
tp259
(I12
(lp260
I666
atp261
s(I1
I130
tp262
(I14
(lp263
I773
atp264
s(I3
I121
tp265
(I24
(lp266
I1191
atp267
s(I0
I149
tp268
(I15
(lp269
I819
atp270
s(I5
I140
tp271
(I25
(lp272
I1253
atp273
s(I0
I50
tp274
(I13
(lp275
I716
atp276
s(I1
I164
tp277
(I25
(lp278
I1201
atp279
s(I3
I31
tp280
(I17
(lp281
I876
atp282
s(I0
I139
tp283
(I14
(lp284
I763
atp285
s(I1
I51
tp286
(I18
(lp287
I919
atp288
s(I3
I134
tp289
(I24
(lp290
I1178
atp291
s(I5
I150
tp292
(I25
(lp293
I1243
atp294
s(I0
I40
tp295
(I18
(lp296
I941
atp297
s(I5
I29
tp298
(I12
(lp299
I664
atp300
s(I3
I37
tp301
(I18
(lp302
I947
atp303
s(I0
I161
tp304
(I25
(lp305
I1205
atp306
s(I3
I172
tp307
(I15
(lp308
I791
atp309
s(I5
I176
tp310
(I16
(lp311
I850
atp312
s(I0
I78
tp313
(I20
(lp314
I1032
atp315
s(I5
I39
tp316
(I12
(lp317
I654
atp318
s(I3
I178
tp319
(I26
(lp320
I1282
atp321
s(I1
I70
tp322
(I13
(lp323
I749
atp324
s(I0
I100
tp325
(I22
(lp326
I1107
atp327
s(I5
I72
tp328
(I13
(lp329
I691
atp330
s(I3
I88
tp331
(I21
(lp332
I1065
atp333
s(I1
I120
tp334
(I14
(lp335
I783
atp336
s(I1
I155
tp337
(I15
(lp338
I836
atp339
s(I5
I82
tp340
(I13
(lp341
I681
atp342
s(I3
I126
tp343
(I24
(lp344
I1186
atp345
s(I1
I189
tp346
(I26
(lp347
I1257
atp348
s(I5
I124
tp349
(I23
(lp350
I1146
atp351
s(I0
I130
tp352
(I23
(lp353
I1135
atp354
s(I1
I52
tp355
(I18
(lp356
I918
atp357
s(I3
I143
tp358
(I24
(lp359
I1169
atp360
s(I5
I159
tp361
(I25
(lp362
I1234
atp363
s(I0
I47
tp364
(I19
(lp365
I990
atp366
s(I3
I42
tp367
(I19
(lp368
I984
atp369
s(I0
I184
tp370
(I26
(lp371
I1267
atp372
s(I1
I46
tp373
(I18
(lp374
I924
atp375
s(I3
I149
tp376
(I15
(lp377
I814
atp378
s(I0
I69
tp379
(I13
(lp380
I735
atp381
s(I5
I32
tp382
(I12
(lp383
I661
atp384
s(I3
I48
tp385
(I19
(lp386
I978
atp387
s(I1
I192
tp388
(I26
(lp389
I1254
atp390
s(I3
I187
tp391
(I26
(lp392
I1273
atp393
s(I1
I95
tp394
(I20
(lp395
I1012
atp396
s(I0
I123
tp397
(I23
(lp398
I1128
atp399
s(I3
I65
tp400
(I19
(lp401
I961
atp402
s(I1
I156
tp403
(I15
(lp404
I835
atp405
s(I5
I91
tp406
(I22
(lp407
I1097
atp408
s(I3
I103
tp409
(I21
(lp410
I1050
atp411
s(I1
I107
tp412
(I20
(lp413
I1000
atp414
s(I1
I182
tp415
(I26
(lp416
I1264
atp417
s(I5
I101
tp418
(I22
(lp419
I1087
atp420
s(I0
I153
tp421
(I15
(lp422
I823
atp423
s(I5
I152
tp424
(I25
(lp425
I1241
atp426
s(I0
I38
tp427
(I18
(lp428
I939
atp429
s(I1
I168
tp430
(I16
(lp431
I872
atp432
s(I1
I39
tp433
(I18
(lp434
I931
atp435
s(I3
I154
tp436
(I15
(lp437
I809
atp438
s(I5
I162
tp439
(I25
(lp440
I1231
atp441
s(I0
I92
tp442
(I22
(lp443
I1099
atp444
s(I5
I41
tp445
(I12
(lp446
I652
atp447
s(I3
I57
tp448
(I19
(lp449
I969
atp450
s(I3
I160
tp451
(I15
(lp452
I803
atp453
s(I1
I80
tp454
(I20
(lp455
I1027
atp456
s(I0
I114
tp457
(I23
(lp458
I1119
atp459
s(I5
I51
tp460
(I13
(lp461
I712
atp462
s(I3
I70
tp463
(I19
(lp464
I956
atp465
s(I1
I74
tp466
(I13
(lp467
I745
atp468
s(I0
I104
tp469
(I22
(lp470
I1111
atp471
s(I1
I149
tp472
(I15
(lp473
I842
atp474
s(I5
I68
tp475
(I13
(lp476
I695
atp477
s(I3
I108
tp478
(I21
(lp479
I1045
atp480
s(I1
I108
tp481
(I20
(lp482
I999
atp483
s(I1
I143
tp484
(I24
(lp485
I1155
atp486
s(I0
I144
tp487
(I24
(lp488
I1163
atp489
s(I5
I129
tp490
(I23
(lp491
I1141
atp492
s(I0
I61
tp493
(I13
(lp494
I727
atp495
s(I1
I161
tp496
(I25
(lp497
I1204
atp498
s(I3
I24
tp499
(I17
(lp500
I883
atp501
s(I0
I182
tp502
(I26
(lp503
I1265
atp504
s(I1
I56
tp505
(I18
(lp506
I914
atp507
s(I3
I131
tp508
(I24
(lp509
I1181
atp510
s(I5
I171
tp511
(I25
(lp512
I1222
atp513
s(I0
I83
tp514
(I20
(lp515
I1037
atp516
s(I3
I62
tp517
(I19
(lp518
I964
atp519
s(I0
I172
tp520
(I25
(lp521
I1216
atp522
s(I3
I169
tp523
(I15
(lp524
I794
atp525
s(I5
I181
tp526
(I16
(lp527
I845
atp528
s(I0
I73
tp529
(I13
(lp530
I739
atp531
s(I5
I60
tp532
(I13
(lp533
I703
atp534
s(I3
I79
tp535
(I20
(lp536
I1042
atp537
s(I1
I67
tp538
(I18
(lp539
I903
atp540
s(I0
I111
tp541
(I22
(lp542
I1118
atp543
s(I5
I77
tp544
(I13
(lp545
I686
atp546
s(I3
I85
tp547
(I21
(lp548
I1068
atp549
s(I1
I101
tp550
(I20
(lp551
I1006
atp552
s(I0
I30
tp553
(I12
(lp554
I668
atp555
s(I1
I128
tp556
(I14
(lp557
I775
atp558
s(I5
I87
tp559
(I21
(lp560
I1080
atp561
s(I3
I123
tp562
(I24
(lp563
I1189
atp564
s(I0
I151
tp565
(I15
(lp566
I821
atp567
s(I1
I31
tp568
(I12
(lp569
I676
atp570
s(I5
I138
tp571
(I14
(lp572
I751
atp573
s(I0
I52
tp574
(I13
(lp575
I718
atp576
s(I1
I186
tp577
(I26
(lp578
I1260
atp579
s(I0
I141
tp580
(I24
(lp581
I1160
atp582
s(I1
I49
tp583
(I18
(lp584
I921
atp585
s(I3
I136
tp586
(I24
(lp587
I1176
atp588
s(I5
I148
tp589
(I25
(lp590
I1245
atp591
s(I0
I42
tp592
(I19
(lp593
I985
atp594
s(I5
I27
tp595
(I17
(lp596
I894
atp597
s(I3
I39
tp598
(I18
(lp599
I945
atp600
s(I0
I163
tp601
(I25
(lp602
I1207
atp603
s(I1
I43
tp604
(I18
(lp605
I927
atp606
s(I3
I174
tp607
(I15
(lp608
I789
atp609
s(I0
I64
tp610
(I13
(lp611
I730
atp612
s(I5
I37
tp613
(I12
(lp614
I656
atp615
s(I3
I180
tp616
(I26
(lp617
I1280
atp618
s(I1
I68
tp619
(I18
(lp620
I902
atp621
s(I0
I102
tp622
(I22
(lp623
I1109
atp624
s(I3
I90
tp625
(I21
(lp626
I1063
atp627
s(I1
I126
tp628
(I14
(lp629
I777
atp630
s(I0
I21
tp631
(I17
(lp632
I887
atp633
s(I1
I153
tp634
(I15
(lp635
I838
atp636
s(I5
I80
tp637
(I13
(lp638
I683
atp639
s(I3
I96
tp640
(I21
(lp641
I1057
atp642
s(I1
I179
tp643
(I16
(lp644
I861
atp645
s(I5
I122
tp646
(I23
(lp647
I1148
atp648
s(I0
I132
tp649
(I23
(lp650
I1137
atp651
s(I5
I157
tp652
(I25
(lp653
I1236
atp654
s(I0
I33
tp655
(I12
(lp656
I671
atp657
s(I3
I44
tp658
(I19
(lp659
I982
atp660
s(I0
I186
tp661
(I26
(lp662
I1269
atp663
s(I1
I44
tp664
(I18
(lp665
I926
atp666
s(I3
I151
tp667
(I15
(lp668
I812
atp669
s(I5
I167
tp670
(I25
(lp671
I1226
atp672
s(I0
I71
tp673
(I13
(lp674
I737
atp675
s(I5
I46
tp676
(I19
(lp677
I994
atp678
s(I3
I50
tp679
(I19
(lp680
I976
atp681
s(I1
I93
tp682
(I20
(lp683
I1014
atp684
s(I0
I125
tp685
(I23
(lp686
I1130
atp687
s(I3
I67
tp688
(I19
(lp689
I959
atp690
s(I1
I119
tp691
(I14
(lp692
I784
atp693
s(I1
I146
tp694
(I24
(lp695
I1152
atp696
s(I5
I89
tp697
(I21
(lp698
I1078
atp699
s(I3
I105
tp700
(I21
(lp701
I1048
atp702
s(I1
I105
tp703
(I20
(lp704
I1002
atp705
s(I1
I180
tp706
(I16
(lp707
I860
atp708
s(I5
I99
tp709
(I22
(lp710
I1089
atp711
s(I0
I155
tp712
(I15
(lp713
I825
atp714
s(I5
I134
tp715
(I14
(lp716
I755
atp717
s(I0
I56
tp718
(I13
(lp719
I722
atp720
s(I1
I174
tp721
(I16
(lp722
I866
atp723
s(I3
I21
tp724
(I17
(lp725
I886
atp726
s(I0
I177
tp727
(I16
(lp728
I854
atp729
s(I1
I37
tp730
(I18
(lp731
I933
atp732
s(I3
I156
tp733
(I15
(lp734
I807
atp735
s(I5
I160
tp736
(I25
(lp737
I1233
atp738
s(I0
I94
tp739
(I22
(lp740
I1101
atp741
s(I5
I23
tp742
(I17
(lp743
I898
atp744
s(I3
I59
tp745
(I19
(lp746
I967
atp747
s(I3
I162
tp748
(I15
(lp749
I801
atp750
s(I1
I86
tp751
(I20
(lp752
I1021
atp753
s(I0
I116
tp754
(I23
(lp755
I1121
atp756
s(I5
I49
tp757
(I13
(lp758
I714
atp759
s(I3
I72
tp760
(I19
(lp761
I954
atp762
s(I1
I72
tp763
(I13
(lp764
I747
atp765
s(I0
I106
tp766
(I22
(lp767
I1113
atp768
s(I5
I66
tp769
(I13
(lp770
I697
atp771
s(I1
I98
tp772
(I20
(lp773
I1009
atp774
s(I0
I25
tp775
(I17
(lp776
I891
atp777
s(I1
I141
tp778
(I24
(lp779
I1157
atp780
s(I3
I116
tp781
(I24
(lp782
I1196
atp783
s(I0
I146
tp784
(I24
(lp785
I1165
atp786
s(I5
I143
tp787
(I25
(lp788
I1250
atp789
s(I0
I63
tp790
(I13
(lp791
I729
atp792
s(I1
I167
tp793
(I25
(lp794
I1198
atp795
s(I3
I26
tp796
(I17
(lp797
I881
atp798
s(I0
I136
tp799
(I14
(lp800
I760
atp801
s(I1
I62
tp802
(I18
(lp803
I908
atp804
s(I3
I133
tp805
(I24
(lp806
I1179
atp807
s(I5
I169
tp808
(I25
(lp809
I1224
atp810
s(I0
I85
tp811
(I21
(lp812
I1071
atp813
s(I3
I32
tp814
(I17
(lp815
I875
atp816
s(I0
I174
tp817
(I25
(lp818
I1218
atp819
s(I3
I171
tp820
(I15
(lp821
I792
atp822
s(I5
I179
tp823
(I16
(lp824
I847
atp825
s(I0
I75
tp826
(I13
(lp827
I741
atp828
s(I5
I58
tp829
(I13
(lp830
I705
atp831
s(I3
I177
tp832
(I26
(lp833
I1283
atp834
s(I1
I65
tp835
(I18
(lp836
I905
atp837
s(I0
I97
tp838
(I22
(lp839
I1104
atp840
s(I5
I75
tp841
(I13
(lp842
I688
atp843
s(I3
I87
tp844
(I21
(lp845
I1066
atp846
s(I1
I123
tp847
(I14
(lp848
I780
atp849
s(I1
I134
tp850
(I14
(lp851
I769
atp852
s(I5
I85
tp853
(I21
(lp854
I1082
atp855
s(I3
I125
tp856
(I24
(lp857
I1187
atp858
s(I1
I29
tp859
(I12
(lp860
I678
atp861
s(I5
I136
tp862
(I14
(lp863
I753
atp864
s(I0
I54
tp865
(I13
(lp866
I720
atp867
s(I1
I184
tp868
(I26
(lp869
I1262
atp870
s(I5
I127
tp871
(I23
(lp872
I1143
atp873
s(I0
I143
tp874
(I24
(lp875
I1162
atp876
s(I1
I55
tp877
(I18
(lp878
I915
atp879
s(I3
I138
tp880
(I24
(lp881
I1174
atp882
s(I5
I146
tp883
(I25
(lp884
I1247
atp885
s(I0
I44
tp886
(I19
(lp887
I987
atp888
s(I5
I25
tp889
(I17
(lp890
I896
atp891
s(I3
I41
tp892
(I18
(lp893
I943
atp894
s(I0
I165
tp895
(I25
(lp896
I1209
atp897
s(I1
I41
tp898
(I18
(lp899
I929
atp900
s(I3
I144
tp901
(I24
(lp902
I1168
atp903
s(I0
I66
tp904
(I13
(lp905
I732
atp906
s(I5
I35
tp907
(I12
(lp908
I658
atp909
s(I3
I182
tp910
(I26
(lp911
I1278
atp912
s(I1
I90
tp913
(I20
(lp914
I1017
atp915
s(I0
I120
tp916
(I23
(lp917
I1125
atp918
s(I3
I92
tp919
(I21
(lp920
I1061
atp921
s(I1
I124
tp922
(I14
(lp923
I779
atp924
s(I0
I23
tp925
(I17
(lp926
I889
atp927
s(I1
I159
tp928
(I15
(lp929
I832
atp930
s(I5
I94
tp931
(I22
(lp932
I1094
atp933
s(I3
I98
tp934
(I21
(lp935
I1055
atp936
s(I1
I177
tp937
(I16
(lp938
I863
atp939
s(I5
I120
tp940
(I23
(lp941
I1150
atp942
s(I0
I134
tp943
(I14
(lp944
I758
atp945
s(I5
I155
tp946
(I25
(lp947
I1238
atp948
s(I0
I35
tp949
(I18
(lp950
I936
atp951
s(I1
I171
tp952
(I16
(lp953
I869
atp954
s(I3
I46
tp955
(I19
(lp956
I980
atp957
s(I0
I188
tp958
(I26
(lp959
I1271
atp960
s(I1
I34
tp961
(I12
(lp962
I673
atp963
s(I3
I153
tp964
(I15
(lp965
I810
atp966
s(I5
I165
tp967
(I25
(lp968
I1228
atp969
s(I0
I89
tp970
(I21
(lp971
I1075
atp972
s(I5
I44
tp973
(I19
(lp974
I996
atp975
s(I3
I52
tp976
(I19
(lp977
I974
atp978
s(I1
I83
tp979
(I20
(lp980
I1024
atp981
s(I0
I127
tp982
(I23
(lp983
I1132
atp984
s(I5
I54
tp985
(I13
(lp986
I709
atp987
s(I3
I69
tp988
(I19
(lp989
I957
atp990
s(I1
I117
tp991
(I14
(lp992
I786
atp993
s(I1
I144
tp994
(I24
(lp995
I1154
atp996
s(I5
I71
tp997
(I13
(lp998
I692
atp999
s(I3
I107
tp1000
(I21
(lp1001
I1046
atp1002
s(I1
I138
tp1003
(I14
(lp1004
I765
atp1005
s(I5
I97
tp1006
(I22
(lp1007
I1091
atp1008
s(I0
I157
tp1009
(I15
(lp1010
I827
atp1011
s(I5
I132
tp1012
(I23
(lp1013
I1138
atp1014
s(I0
I58
tp1015
(I13
(lp1016
I724
atp1017
s(I1
I172
tp1018
(I16
(lp1019
I868
atp1020
s(I3
I23
tp1021
(I17
(lp1022
I884
atp1023
s(I0
I179
tp1024
(I16
(lp1025
I856
atp1026
s(I1
I59
tp1027
(I18
(lp1028
I911
atp1029
s(I3
I158
tp1030
(I15
(lp1031
I805
atp1032
s(I5
I174
tp1033
(I25
(lp1034
I1219
atp1035
s(I0
I80
tp1036
(I20
(lp1037
I1034
atp1038
s(I5
I21
tp1039
(I17
(lp1040
I900
atp1041
s(I3
I61
tp1042
(I19
(lp1043
I965
atp1044
s(I0
I169
tp1045
(I25
(lp1046
I1213
atp1047
s(I3
I164
tp1048
(I15
(lp1049
I799
atp1050
s(I1
I84
tp1051
(I20
(lp1052
I1023
atp1053
s(I0
I118
tp1054
(I23
(lp1055
I1123
atp1056
s(I5
I63
tp1057
(I13
(lp1058
I700
atp1059
s(I3
I74
tp1060
(I19
(lp1061
I952
atp1062
s(I1
I78
tp1063
(I20
(lp1064
I1029
atp1065
s(I0
I108
tp1066
(I22
(lp1067
I1115
atp1068
s(I5
I64
tp1069
(I13
(lp1070
I699
atp1071
s(I3
I80
tp1072
(I20
(lp1073
I1041
atp1074
s(I1
I96
tp1075
(I20
(lp1076
I1011
atp1077
s(I0
I27
tp1078
(I17
(lp1079
I893
atp1080
s(I1
I131
tp1081
(I14
(lp1082
I772
atp1083
s(I3
I118
tp1084
(I24
(lp1085
I1194
atp1086
s(I0
I148
tp1087
(I15
(lp1088
I818
atp1089
s(I5
I141
tp1090
(I25
(lp1091
I1252
atp1092
s(I0
I49
tp1093
(I13
(lp1094
I715
atp1095
s(I1
I165
tp1096
(I25
(lp1097
I1200
atp1098
s(I3
I28
tp1099
(I17
(lp1100
I879
atp1101
s(I0
I138
tp1102
(I14
(lp1103
I762
atp1104
s(I1
I60
tp1105
(I18
(lp1106
I910
atp1107
s(I3
I135
tp1108
(I24
(lp1109
I1177
atp1110
s(I5
I151
tp1111
(I25
(lp1112
I1242
atp1113
s(I0
I87
tp1114
(I21
(lp1115
I1073
atp1116
s(I5
I30
tp1117
(I12
(lp1118
I663
atp1119
s(I3
I34
tp1120
(I17
(lp1121
I873
atp1122
s(I0
I160
tp1123
(I15
(lp1124
I830
atp1125
s(I3
I173
tp1126
(I15
(lp1127
I790
atp1128
s(I5
I177
tp1129
(I16
(lp1130
I849
atp1131
s(I0
I77
tp1132
(I20
(lp1133
I1031
atp1134
s(I5
I56
tp1135
(I13
(lp1136
I707
atp1137
s(I3
I179
tp1138
(I26
(lp1139
I1281
atp1140
s(I1
I71
tp1141
(I13
(lp1142
I748
atp1143
s(I0
I99
tp1144
(I22
(lp1145
I1106
atp1146
s(I5
I73
tp1147
(I13
(lp1148
I690
atp1149
s(I3
I89
tp1150
(I21
(lp1151
I1064
atp1152
s(I1
I121
tp1153
(I14
(lp1154
I782
atp1155
s(I1
I132
tp1156
(I14
(lp1157
I771
atp1158
s(I5
I83
tp1159
(I13
(lp1160
I680
atp1161
s(I3
I127
tp1162
(I24
(lp1163
I1185
atp1164
s(I1
I190
tp1165
(I26
(lp1166
I1256
atp1167
s(I5
I125
tp1168
(I23
(lp1169
I1145
atp1170
s(I0
I129
tp1171
(I23
(lp1172
I1134
atp1173
s(I1
I53
tp1174
(I18
(lp1175
I917
atp1176
s(I3
I140
tp1177
(I24
(lp1178
I1172
atp1179
s(I5
I144
tp1180
(I25
(lp1181
I1249
atp1182
s(I0
I46
tp1183
(I19
(lp1184
I989
atp1185
s(I3
I43
tp1186
(I19
(lp1187
I983
atp1188
s(I0
I167
tp1189
(I25
(lp1190
I1211
atp1191
s(I1
I47
tp1192
(I18
(lp1193
I923
atp1194
s(I3
I146
tp1195
(I24
(lp1196
I1166
atp1197
s(I0
I68
tp1198
(I13
(lp1199
I734
atp1200
s(I5
I33
tp1201
(I12
(lp1202
I660
atp1203
s(I3
I49
tp1204
(I19
(lp1205
I977
atp1206
s(I3
I184
tp1207
(I26
(lp1208
I1276
atp1209
s(I1
I88
tp1210
(I20
(lp1211
I1019
atp1212
s(I0
I122
tp1213
(I23
(lp1214
I1127
atp1215
s(I3
I94
tp1216
(I21
(lp1217
I1059
atp1218
s(I1
I157
tp1219
(I15
(lp1220
I834
atp1221
s(I5
I92
tp1222
(I22
(lp1223
I1096
atp1224
s(I3
I100
tp1225
(I21
(lp1226
I1053
atp1227
s(I1
I183
tp1228
(I26
(lp1229
I1263
atp1230
s(I5
I102
tp1231
(I22
(lp1232
I1086
atp1233
s(I0
I152
tp1234
(I15
(lp1235
I822
atp1236
s(I5
I153
tp1237
(I25
(lp1238
I1240
atp1239
s(I0
I37
tp1240
(I18
(lp1241
I938
atp1242
s(I1
I169
tp1243
(I16
(lp1244
I871
atp1245
s(I1
I32
tp1246
(I12
(lp1247
I675
atp1248
s(I3
I155
tp1249
(I15
(lp1250
I808
atp1251
s(I5
I163
tp1252
(I25
(lp1253
I1230
atp1254
s(I0
I91
tp1255
(I22
(lp1256
I1098
atp1257
s(I5
I42
tp1258
(I19
(lp1259
I998
atp1260
s(I3
I54
tp1261
(I19
(lp1262
I972
atp1263
s(I3
I161
tp1264
(I15
(lp1265
I802
atp1266
s(I1
I81
tp1267
(I20
(lp1268
I1026
atp1269
s(I5
I52
tp1270
(I13
(lp1271
I711
atp1272
s(I3
I71
tp1273
(I19
(lp1274
I955
atp1275
s(I1
I75
tp1276
(I13
(lp1277
I744
atp1278
s(I1
I150
tp1279
(I15
(lp1280
I841
atp1281
s(I5
I69
tp1282
(I13
(lp1283
I694
atp1284
s(I1
I136
tp1285
(I14
(lp1286
I767
atp1287
s(I3
I115
tp1288
(I24
(lp1289
I1197
atp1290
s(I0
I159
tp1291
(I15
(lp1292
I829
atp1293
s(I5
I130
tp1294
(I23
(lp1295
I1140
atp1296
s(I0
I60
tp1297
(I13
(lp1298
I726
atp1299
s(I1
I162
tp1300
(I25
(lp1301
I1203
atp1302
s(I3
I25
tp1303
(I17
(lp1304
I882
atp1305
s(I0
I181
tp1306
(I16
(lp1307
I858
atp1308
s(I1
I57
tp1309
(I18
(lp1310
I913
atp1311
s(I3
I128
tp1312
(I24
(lp1313
I1184
atp1314
s(I5
I172
tp1315
(I25
(lp1316
I1221
atp1317
s(I0
I82
tp1318
(I20
(lp1319
I1036
atp1320
s(I3
I63
tp1321
(I19
(lp1322
I963
atp1323
s(I0
I171
tp1324
(I25
(lp1325
I1215
atp1326
s(I3
I166
tp1327
(I15
(lp1328
I797
atp1329
s(I0
I72
tp1330
(I13
(lp1331
I738
atp1332
s(I5
I61
tp1333
(I13
(lp1334
I702
atp1335
s(I3
I76
tp1336
(I19
(lp1337
I950
atp1338
s(I1
I76
tp1339
(I13
(lp1340
I743
atp1341
s(I0
I110
tp1342
(I22
(lp1343
I1117
atp1344
s(I5
I78
tp1345
(I13
(lp1346
I685
atp1347
s(I3
I82
tp1348
(I20
(lp1349
I1039
atp1350
s(I1
I102
tp1351
(I20
(lp1352
I1005
atp1353
s(I0
I29
tp1354
(I12
(lp1355
I667
atp1356
s(I1
I129
tp1357
(I14
(lp1358
I774
atp1359
s(I5
I104
tp1360
(I22
(lp1361
I1084
atp1362
s(I3
I120
tp1363
(I24
(lp1364
I1192
atp1365
s(I0
I150
tp1366
(I15
(lp1367
I820
atp1368
s(I5
I139
tp1369
(I14
(lp1370
I750
atp1371
s(I0
I51
tp1372
(I13
(lp1373
I717
atp1374
s(I1
I187
tp1375
(I26
(lp1376
I1259
atp1377
s(I3
I30
tp1378
(I17
(lp1379
I877
atp1380
s(I0
I140
tp1381
(I24
(lp1382
I1159
atp1383
s(I1
I50
tp1384
(I18
(lp1385
I920
atp1386
s(I3
I137
tp1387
(I24
(lp1388
I1175
atp1389
s(I5
I149
tp1390
(I25
(lp1391
I1244
atp1392
s(I0
I41
tp1393
(I18
(lp1394
I942
atp1395
s(I5
I28
tp1396
(I12
(lp1397
I665
atp1398
s(I3
I36
tp1399
(I18
(lp1400
I948
atp1401
s(I0
I162
tp1402
(I25
(lp1403
I1206
atp1404
s(I3
I175
tp1405
(I26
(lp1406
I1285
atp1407
s(I0
I79
tp1408
(I20
(lp1409
I1033
atp1410
s(I5
I38
tp1411
(I12
(lp1412
I655
atp1413
s(I3
I181
tp1414
(I26
(lp1415
I1279
atp1416
s(I1
I69
tp1417
(I18
(lp1418
I901
atp1419
s(I0
I101
tp1420
(I22
(lp1421
I1108
atp1422
s(I3
I91
tp1423
(I21
(lp1424
I1062
atp1425
s(I1
I127
tp1426
(I14
(lp1427
I776
atp1428
s(I1
I154
tp1429
(I15
(lp1430
I837
atp1431
s(I5
I81
tp1432
(I13
(lp1433
I682
atp1434
s(I3
I97
tp1435
(I21
(lp1436
I1056
atp1437
s(I1
I188
tp1438
(I26
(lp1439
I1258
atp1440
s(I5
I123
tp1441
(I23
(lp1442
I1147
atp1443
s(I0
I131
tp1444
(I23
(lp1445
I1136
atp1446
s(I3
I142
tp1447
(I24
(lp1448
I1170
atp1449
s(I5
I158
tp1450
(I25
(lp1451
I1235
atp1452
s(I0
I32
tp1453
(I12
(lp1454
I670
atp1455
s(I3
I45
tp1456
(I19
(lp1457
I981
atp1458
s(I0
I185
tp1459
(I26
(lp1460
I1268
atp1461
s(I1
I45
tp1462
(I18
(lp1463
I925
atp1464
s(I3
I148
tp1465
(I15
(lp1466
I815
atp1467
s(I0
I70
tp1468
(I13
(lp1469
I736
atp1470
s(I5
I47
tp1471
(I19
(lp1472
I993
atp1473
s(I3
I51
tp1474
(I19
(lp1475
I975
atp1476
s(I3
I186
tp1477
(I26
(lp1478
I1274
atp1479
s(I1
I94
tp1480
(I20
(lp1481
I1013
atp1482
s(I0
I124
tp1483
(I23
(lp1484
I1129
atp1485
s(I3
I64
tp1486
(I19
(lp1487
I962
atp1488
s(I1
I147
tp1489
(I15
(lp1490
I844
atp1491
s(I5
I90
tp1492
(I21
(lp1493
I1077
atp1494
s(I3
I102
tp1495
(I21
(lp1496
I1051
atp1497
s(I1
I106
tp1498
(I20
(lp1499
I1001
atp1500
s(I1
I181
tp1501
(I16
(lp1502
I859
atp1503
s(I5
I100
tp1504
(I22
(lp1505
I1088
atp1506
s(I0
I154
tp1507
(I15
(lp1508
I824
atp1509
s(I5
I135
tp1510
(I14
(lp1511
I754
atp1512
s(I0
I39
tp1513
(I18
(lp1514
I940
atp1515
s(I1
I175
tp1516
(I16
(lp1517
I865
atp1518
s(I0
I176
tp1519
(I16
(lp1520
I853
atp1521
s(I1
I38
tp1522
(I18
(lp1523
I932
atp1524
s(I3
I157
tp1525
(I15
(lp1526
I806
atp1527
s(I5
I161
tp1528
(I25
(lp1529
I1232
atp1530
s(I0
I93
tp1531
(I22
(lp1532
I1100
atp1533
s(I5
I40
tp1534
(I12
(lp1535
I653
atp1536
s(I3
I56
tp1537
(I19
(lp1538
I970
atp1539
s(I3
I163
tp1540
(I15
(lp1541
I800
atp1542
s(I1
I87
tp1543
(I20
(lp1544
I1020
atp1545
s(I0
I115
tp1546
(I23
(lp1547
I1120
atp1548
s(I5
I50
tp1549
(I13
(lp1550
I713
atp1551
s(I3
I73
tp1552
(I19
(lp1553
I953
atp1554
s(I1
I73
tp1555
(I13
(lp1556
I746
atp1557
s(I0
I105
tp1558
(I22
(lp1559
I1112
atp1560
s(I1
I148
tp1561
(I15
(lp1562
I843
atp1563
s(I5
I67
tp1564
(I13
(lp1565
I696
atp1566
s(I1
I99
tp1567
(I20
(lp1568
I1008
atp1569
s(I0
I24
tp1570
(I17
(lp1571
I890
atp1572
s(I1
I142
tp1573
(I24
(lp1574
I1156
atp1575
s(I3
I117
tp1576
(I24
(lp1577
I1195
atp1578
s(I0
I145
tp1579
(I24
(lp1580
I1164
atp1581
s(I5
I128
tp1582
(I23
(lp1583
I1142
atp1584
s(I0
I62
tp1585
(I13
(lp1586
I728
atp1587
s(I1
I160
tp1588
(I15
(lp1589
I831
atp1590
s(I5
I119
tp1591
(I23
(lp1592
I1151
atp1593
s(I3
I27
tp1594
(I17
(lp1595
I880
atp1596
s(I0
I183
tp1597
(I26
(lp1598
I1266
atp1599
s(I1
I63
tp1600
(I18
(lp1601
I907
atp1602
s(I3
I130
tp1603
(I24
(lp1604
I1182
atp1605
s(I5
I170
tp1606
(I25
(lp1607
I1223
atp1608
s(I0
I84
tp1609
(I21
(lp1610
I1070
atp1611
s(I3
I33
tp1612
(I17
(lp1613
I874
atp1614
s(I0
I173
tp1615
(I25
(lp1616
I1217
atp1617
s(I3
I168
tp1618
(I15
(lp1619
I795
atp1620
s(I5
I180
tp1621
(I16
(lp1622
I846
atp1623
s(I0
I74
tp1624
(I13
(lp1625
I740
atp1626
s(I5
I59
tp1627
(I13
(lp1628
I704
atp1629
s(I3
I78
tp1630
(I20
(lp1631
I1043
atp1632
s(I1
I66
tp1633
(I18
(lp1634
I904
atp1635
s(I0
I96
tp1636
(I22
(lp1637
I1103
atp1638
s(I5
I76
tp1639
(I13
(lp1640
I687
atp1641
s(I3
I84
tp1642
(I21
(lp1643
I1069
atp1644
s(I1
I100
tp1645
(I20
(lp1646
I1007
atp1647
s(I0
I31
tp1648
(I12
(lp1649
I669
atp1650
s(I1
I135
tp1651
(I14
(lp1652
I768
atp1653
s(I5
I86
tp1654
(I21
(lp1655
I1081
atp1656
s(I3
I122
tp1657
(I24
(lp1658
I1190
atp1659
s(I1
I30
tp1660
(I12
(lp1661
I677
atp1662
s(I5
I137
tp1663
(I14
(lp1664
I752
atp1665
s(I0
I53
tp1666
(I13
(lp1667
I719
atp1668
s(I1
I185
tp1669
(I26
(lp1670
I1261
atp1671
s(I0
I142
tp1672
(I24
(lp1673
I1161
atp1674
s(I1
I48
tp1675
(I18
(lp1676
I922
atp1677
s(I3
I139
tp1678
(I24
(lp1679
I1173
atp1680
s(I5
I147
tp1681
(I25
(lp1682
I1246
atp1683
s(I0
I43
tp1684
(I19
(lp1685
I986
atp1686
s(I5
I26
tp1687
(I17
(lp1688
I895
atp1689
s(I3
I38
tp1690
(I18
(lp1691
I946
atp1692
s(I0
I164
tp1693
(I25
(lp1694
I1208
atp1695
s(I1
I42
tp1696
(I18
(lp1697
I928
atp1698
s(I3
I145
tp1699
(I24
(lp1700
I1167
atp1701
s(I0
I65
tp1702
(I13
(lp1703
I731
atp1704
s(I5
I36
tp1705
(I12
(lp1706
I657
atp1707
s(I3
I183
tp1708
(I26
(lp1709
I1277
atp1710
s(I1
I91
tp1711
(I20
(lp1712
I1016
atp1713
s(I0
I103
tp1714
(I22
(lp1715
I1110
atp1716
s(I3
I93
tp1717
(I21
(lp1718
I1060
atp1719
s(I1
I125
tp1720
(I14
(lp1721
I778
atp1722
s(I0
I22
tp1723
(I17
(lp1724
I888
atp1725
s(I1
I152
tp1726
(I15
(lp1727
I839
atp1728
s(I5
I95
tp1729
(I22
(lp1730
I1093
atp1731
s(I3
I99
tp1732
(I21
(lp1733
I1054
atp1734
s(I1
I178
tp1735
(I16
(lp1736
I862
atp1737
s(I5
I121
tp1738
(I23
(lp1739
I1149
atp1740
s(I0
I133
tp1741
(I14
(lp1742
I757
atp1743
s(I5
I156
tp1744
(I25
(lp1745
I1237
atp1746
s(I0
I34
tp1747
(I12
(lp1748
I672
atp1749
s(I3
I47
tp1750
(I19
(lp1751
I979
atp1752
s(I0
I187
tp1753
(I26
(lp1754
I1270
atp1755
s(I1
I35
tp1756
(I18
(lp1757
I935
atp1758
s(I3
I150
tp1759
(I15
(lp1760
I813
atp1761
s(I5
I166
tp1762
(I25
(lp1763
I1227
atp1764
s(I0
I88
tp1765
(I21
(lp1766
I1074
atp1767
s(I5
I45
tp1768
(I19
(lp1769
I995
atp1770
s(I3
I53
tp1771
(I19
(lp1772
I973
atp1773
s(I3
I188
tp1774
(I26
(lp1775
I1272
atp1776
s(I1
I92
tp1777
(I20
(lp1778
I1015
atp1779
s(I0
I126
tp1780
(I23
(lp1781
I1131
atp1782
s(I5
I55
tp1783
(I13
(lp1784
I708
atp1785
s(I3
I66
tp1786
(I19
(lp1787
I960
atp1788
s(I1
I118
tp1789
(I14
(lp1790
I785
atp1791
s(I1
I145
tp1792
(I24
(lp1793
I1153
atp1794
s(I5
I88
tp1795
(I21
(lp1796
I1079
atp1797
s(I3
I104
tp1798
(I21
(lp1799
I1049
atp1800
s(I1
I104
tp1801
(I20
(lp1802
I1003
atp1803
s(I1
I139
tp1804
(I14
(lp1805
I764
atp1806
s(I5
I98
tp1807
(I22
(lp1808
I1090
atp1809
s(I0
I156
tp1810
(I15
(lp1811
I826
atp1812
s(I5
I133
tp1813
(I14
(lp1814
I756
atp1815
s(I0
I57
tp1816
(I13
(lp1817
I723
atp1818
s(I1
I173
tp1819
(I16
(lp1820
I867
atp1821
s(I0
I178
tp1822
(I16
(lp1823
I855
atp1824
s(I1
I36
tp1825
(I18
(lp1826
I934
atp1827
s(I3
I159
tp1828
(I15
(lp1829
I804
atp1830
s(I5
I175
tp1831
(I16
(lp1832
I851
atp1833
s(I0
I95
tp1834
(I22
(lp1835
I1102
atp1836
s(I5
I22
tp1837
(I17
(lp1838
I899
atp1839
s(I3
I58
tp1840
(I19
(lp1841
I968
atp1842
s(I0
I168
tp1843
(I25
(lp1844
I1212
atp1845
s(I3
I165
tp1846
(I15
(lp1847
I798
atp1848
s(I1
I85
tp1849
(I20
(lp1850
I1022
atp1851
s(I0
I117
tp1852
(I23
(lp1853
I1122
atp1854
s(I5
I48
tp1855
(I19
(lp1856
I992
atp1857
s(I3
I75
tp1858
(I19
(lp1859
I951
atp1860
s(I1
I79
tp1861
(I20
(lp1862
I1028
atp1863
s(I0
I107
tp1864
(I22
(lp1865
I1114
atp1866
s(I5
I65
tp1867
(I13
(lp1868
I698
atp1869
s(I3
I81
tp1870
(I20
(lp1871
I1040
atp1872
s(I1
I97
tp1873
(I20
(lp1874
I1010
atp1875
s(I0
I26
tp1876
(I17
(lp1877
I892
atp1878
s(I1
I140
tp1879
(I24
(lp1880
I1158
atp1881
s(I3
I119
tp1882
(I24
(lp1883
I1193
atp1884
s(I0
I147
tp1885
(I15
(lp1886
I817
atp1887
s(I5
I142
tp1888
(I25
(lp1889
I1251
atp1890
s(I0
I48
tp1891
(I19
(lp1892
I991
atp1893
s(I1
I166
tp1894
(I25
(lp1895
I1199
atp1896
s(I3
I29
tp1897
(I17
(lp1898
I878
atp1899
s(I0
I137
tp1900
(I14
(lp1901
I761
atp1902
s(I1
I61
tp1903
(I18
(lp1904
I909
atp1905
s(I3
I132
tp1906
(I24
(lp1907
I1180
atp1908
s(I5
I168
tp1909
(I25
(lp1910
I1225
atp1911
ssS'_scaf'
p1912
(dp1913
(I0
I86
tp1914
(I2
(lp1915
I186
atp1916
s(I5
I31
tp1917
(I9
(lp1918
I493
atp1919
s(I3
I35
tp1920
(I3
(lp1921
I226
atp1922
s(I0
I175
tp1923
(I11
(lp1924
I609
atp1925
s(I3
I170
tp1926
(I11
(lp1927
I629
atp1928
s(I5
I178
tp1929
(I10
(lp1930
I584
atp1931
s(I0
I76
tp1932
(I2
(lp1933
I196
atp1934
s(I5
I57
tp1935
(I9
(lp1936
I519
atp1937
s(I3
I176
tp1938
(I11
(lp1939
I635
atp1940
s(I1
I64
tp1941
(I0
(lp1942
I13
atp1943
s(I0
I98
tp1944
(I2
(lp1945
I174
atp1946
s(I5
I74
tp1947
(I6
(lp1948
I349
atp1949
s(I3
I86
tp1950
(I4
(lp1951
I277
atp1952
s(I1
I122
tp1953
(I1
(lp1954
I57
atp1955
s(I0
I17
tp1956
(I8
(lp1957
I478
atp1958
s(I1
I133
tp1959
(I1
(lp1960
I68
atp1961
s(I5
I84
tp1962
(I6
(lp1963
I359
atp1964
s(I3
I124
tp1965
(I5
(lp1966
I301
atp1967
s(I1
I28
tp1968
(I8
(lp1969
I422
atp1970
s(I0
I55
tp1971
(I9
(lp1972
I536
atp1973
s(I5
I126
tp1974
(I7
(lp1975
I395
atp1976
s(I0
I128
tp1977
(I2
(lp1978
I144
atp1979
s(I1
I54
tp1980
(I0
(lp1981
I3
atp1982
s(I3
I141
tp1983
(I5
(lp1984
I318
atp1985
s(I5
I145
tp1986
(I7
(lp1987
I414
atp1988
s(I0
I45
tp1989
(I8
(lp1990
I450
atp1991
s(I5
I24
tp1992
(I9
(lp1993
I486
atp1994
s(I3
I40
tp1995
(I3
(lp1996
I231
atp1997
s(I0
I166
tp1998
(I11
(lp1999
I618
atp2000
s(I1
I40
tp2001
(I8
(lp2002
I434
atp2003
s(I3
I147
tp2004
(I5
(lp2005
I324
atp2006
s(I0
I67
tp2007
(I2
(lp2008
I205
atp2009
s(I5
I34
tp2010
(I9
(lp2011
I496
atp2012
s(I3
I185
tp2013
(I11
(lp2014
I644
atp2015
s(I1
I89
tp2016
(I0
(lp2017
I38
atp2018
s(I0
I121
tp2019
(I2
(lp2020
I151
atp2021
s(I3
I95
tp2022
(I4
(lp2023
I286
atp2024
s(I1
I158
tp2025
(I1
(lp2026
I93
atp2027
s(I5
I93
tp2028
(I6
(lp2029
I368
atp2030
s(I3
I101
tp2031
(I4
(lp2032
I292
atp2033
s(I1
I176
tp2034
(I1
(lp2035
I111
atp2036
s(I5
I103
tp2037
(I6
(lp2038
I378
atp2039
s(I0
I135
tp2040
(I2
(lp2041
I137
atp2042
s(I5
I154
tp2043
(I10
(lp2044
I560
atp2045
s(I0
I36
tp2046
(I8
(lp2047
I459
atp2048
s(I1
I170
tp2049
(I1
(lp2050
I105
atp2051
s(I3
I17
tp2052
(I3
(lp2053
I208
atp2054
s(I0
I189
tp2055
(I11
(lp2056
I595
atp2057
s(I1
I33
tp2058
(I8
(lp2059
I427
atp2060
s(I3
I152
tp2061
(I5
(lp2062
I329
atp2063
s(I5
I164
tp2064
(I10
(lp2065
I570
atp2066
s(I0
I90
tp2067
(I2
(lp2068
I182
atp2069
s(I5
I43
tp2070
(I9
(lp2071
I505
atp2072
s(I3
I55
tp2073
(I3
(lp2074
I246
atp2075
s(I3
I190
tp2076
(I11
(lp2077
I649
atp2078
s(I1
I82
tp2079
(I0
(lp2080
I31
atp2081
s(I0
I112
tp2082
(I2
(lp2083
I160
atp2084
s(I5
I53
tp2085
(I9
(lp2086
I515
atp2087
s(I3
I68
tp2088
(I4
(lp2089
I259
atp2090
s(I1
I151
tp2091
(I1
(lp2092
I86
atp2093
s(I5
I70
tp2094
(I6
(lp2095
I345
atp2096
s(I1
I137
tp2097
(I1
(lp2098
I72
atp2099
s(I5
I96
tp2100
(I6
(lp2101
I371
atp2102
s(I0
I158
tp2103
(I10
(lp2104
I545
atp2105
s(I5
I131
tp2106
(I7
(lp2107
I400
atp2108
s(I0
I59
tp2109
(I9
(lp2110
I532
atp2111
s(I1
I163
tp2112
(I1
(lp2113
I98
atp2114
s(I3
I22
tp2115
(I3
(lp2116
I213
atp2117
s(I0
I180
tp2118
(I11
(lp2119
I604
atp2120
s(I1
I58
tp2121
(I0
(lp2122
I7
atp2123
s(I3
I129
tp2124
(I5
(lp2125
I306
atp2126
s(I5
I173
tp2127
(I10
(lp2128
I579
atp2129
s(I0
I81
tp2130
(I2
(lp2131
I191
atp2132
s(I5
I20
tp2133
(I9
(lp2134
I482
atp2135
s(I3
I60
tp2136
(I4
(lp2137
I251
atp2138
s(I0
I170
tp2139
(I11
(lp2140
I614
atp2141
s(I3
I167
tp2142
(I11
(lp2143
I626
atp2144
s(I5
I183
tp2145
(I10
(lp2146
I589
atp2147
s(I0
I119
tp2148
(I2
(lp2149
I153
atp2150
s(I5
I62
tp2151
(I9
(lp2152
I524
atp2153
s(I0
I192
tp2154
(I11
(lp2155
I592
atp2156
s(I3
I77
tp2157
(I4
(lp2158
I268
atp2159
s(I1
I77
tp2160
(I0
(lp2161
I26
atp2162
s(I0
I109
tp2163
(I2
(lp2164
I163
atp2165
s(I5
I79
tp2166
(I6
(lp2167
I354
atp2168
s(I3
I83
tp2169
(I4
(lp2170
I274
atp2171
s(I1
I103
tp2172
(I0
(lp2173
I52
atp2174
s(I0
I28
tp2175
(I8
(lp2176
I467
atp2177
s(I1
I130
tp2178
(I1
(lp2179
I65
atp2180
s(I5
I105
tp2181
(I6
(lp2182
I380
atp2183
s(I3
I121
tp2184
(I5
(lp2185
I298
atp2186
s(I0
I149
tp2187
(I10
(lp2188
I554
atp2189
s(I1
I25
tp2190
(I8
(lp2191
I419
atp2192
s(I5
I140
tp2193
(I7
(lp2194
I409
atp2195
s(I0
I50
tp2196
(I8
(lp2197
I445
atp2198
s(I1
I164
tp2199
(I1
(lp2200
I99
atp2201
s(I5
I115
tp2202
(I7
(lp2203
I384
atp2204
s(I3
I31
tp2205
(I3
(lp2206
I222
atp2207
s(I0
I139
tp2208
(I2
(lp2209
I133
atp2210
s(I1
I51
tp2211
(I0
(lp2212
I0
atp2213
s(I3
I134
tp2214
(I5
(lp2215
I311
atp2216
s(I5
I150
tp2217
(I10
(lp2218
I556
atp2219
s(I0
I40
tp2220
(I8
(lp2221
I455
atp2222
s(I5
I29
tp2223
(I9
(lp2224
I491
atp2225
s(I3
I37
tp2226
(I3
(lp2227
I228
atp2228
s(I0
I161
tp2229
(I10
(lp2230
I542
atp2231
s(I3
I172
tp2232
(I11
(lp2233
I631
atp2234
s(I5
I176
tp2235
(I10
(lp2236
I582
atp2237
s(I0
I78
tp2238
(I2
(lp2239
I194
atp2240
s(I5
I39
tp2241
(I9
(lp2242
I501
atp2243
s(I3
I178
tp2244
(I11
(lp2245
I637
atp2246
s(I1
I70
tp2247
(I0
(lp2248
I19
atp2249
s(I0
I100
tp2250
(I2
(lp2251
I172
atp2252
s(I5
I72
tp2253
(I6
(lp2254
I347
atp2255
s(I3
I88
tp2256
(I4
(lp2257
I279
atp2258
s(I1
I120
tp2259
(I1
(lp2260
I55
atp2261
s(I0
I19
tp2262
(I8
(lp2263
I476
atp2264
s(I1
I155
tp2265
(I1
(lp2266
I90
atp2267
s(I5
I82
tp2268
(I6
(lp2269
I357
atp2270
s(I3
I126
tp2271
(I5
(lp2272
I303
atp2273
s(I5
I124
tp2274
(I7
(lp2275
I393
atp2276
s(I0
I130
tp2277
(I2
(lp2278
I142
atp2279
s(I1
I52
tp2280
(I0
(lp2281
I1
atp2282
s(I3
I143
tp2283
(I5
(lp2284
I320
atp2285
s(I5
I159
tp2286
(I10
(lp2287
I565
atp2288
s(I0
I47
tp2289
(I8
(lp2290
I448
atp2291
s(I3
I42
tp2292
(I3
(lp2293
I233
atp2294
s(I0
I184
tp2295
(I11
(lp2296
I600
atp2297
s(I1
I46
tp2298
(I8
(lp2299
I440
atp2300
s(I3
I149
tp2301
(I5
(lp2302
I326
atp2303
s(I5
I185
tp2304
(I10
(lp2305
I591
atp2306
s(I0
I69
tp2307
(I2
(lp2308
I203
atp2309
s(I5
I32
tp2310
(I9
(lp2311
I494
atp2312
s(I3
I48
tp2313
(I3
(lp2314
I239
atp2315
s(I3
I187
tp2316
(I11
(lp2317
I646
atp2318
s(I1
I95
tp2319
(I0
(lp2320
I44
atp2321
s(I0
I123
tp2322
(I2
(lp2323
I149
atp2324
s(I3
I65
tp2325
(I4
(lp2326
I256
atp2327
s(I1
I156
tp2328
(I1
(lp2329
I91
atp2330
s(I5
I91
tp2331
(I6
(lp2332
I366
atp2333
s(I3
I103
tp2334
(I4
(lp2335
I294
atp2336
s(I1
I182
tp2337
(I1
(lp2338
I117
atp2339
s(I5
I101
tp2340
(I6
(lp2341
I376
atp2342
s(I0
I153
tp2343
(I10
(lp2344
I550
atp2345
s(I5
I152
tp2346
(I10
(lp2347
I558
atp2348
s(I0
I38
tp2349
(I8
(lp2350
I457
atp2351
s(I1
I168
tp2352
(I1
(lp2353
I103
atp2354
s(I3
I19
tp2355
(I3
(lp2356
I210
atp2357
s(I0
I191
tp2358
(I11
(lp2359
I593
atp2360
s(I1
I39
tp2361
(I8
(lp2362
I433
atp2363
s(I3
I154
tp2364
(I5
(lp2365
I331
atp2366
s(I5
I162
tp2367
(I10
(lp2368
I568
atp2369
s(I0
I92
tp2370
(I2
(lp2371
I180
atp2372
s(I5
I41
tp2373
(I9
(lp2374
I503
atp2375
s(I3
I57
tp2376
(I4
(lp2377
I248
atp2378
s(I3
I160
tp2379
(I5
(lp2380
I337
atp2381
s(I1
I80
tp2382
(I0
(lp2383
I29
atp2384
s(I0
I114
tp2385
(I2
(lp2386
I158
atp2387
s(I5
I51
tp2388
(I9
(lp2389
I513
atp2390
s(I3
I70
tp2391
(I4
(lp2392
I261
atp2393
s(I1
I74
tp2394
(I0
(lp2395
I23
atp2396
s(I0
I104
tp2397
(I2
(lp2398
I168
atp2399
s(I1
I149
tp2400
(I1
(lp2401
I84
atp2402
s(I5
I68
tp2403
(I6
(lp2404
I343
atp2405
s(I1
I143
tp2406
(I1
(lp2407
I78
atp2408
s(I0
I144
tp2409
(I2
(lp2410
I128
atp2411
s(I5
I129
tp2412
(I7
(lp2413
I398
atp2414
s(I0
I61
tp2415
(I9
(lp2416
I530
atp2417
s(I1
I161
tp2418
(I1
(lp2419
I96
atp2420
s(I3
I24
tp2421
(I3
(lp2422
I215
atp2423
s(I0
I182
tp2424
(I11
(lp2425
I602
atp2426
s(I1
I56
tp2427
(I0
(lp2428
I5
atp2429
s(I3
I131
tp2430
(I5
(lp2431
I308
atp2432
s(I5
I171
tp2433
(I10
(lp2434
I577
atp2435
s(I0
I83
tp2436
(I2
(lp2437
I189
atp2438
s(I5
I18
tp2439
(I9
(lp2440
I480
atp2441
s(I3
I62
tp2442
(I4
(lp2443
I253
atp2444
s(I0
I172
tp2445
(I11
(lp2446
I612
atp2447
s(I3
I169
tp2448
(I11
(lp2449
I628
atp2450
s(I5
I181
tp2451
(I10
(lp2452
I587
atp2453
s(I0
I73
tp2454
(I2
(lp2455
I199
atp2456
s(I5
I60
tp2457
(I9
(lp2458
I522
atp2459
s(I3
I79
tp2460
(I4
(lp2461
I270
atp2462
s(I1
I67
tp2463
(I0
(lp2464
I16
atp2465
s(I0
I111
tp2466
(I2
(lp2467
I161
atp2468
s(I5
I77
tp2469
(I6
(lp2470
I352
atp2471
s(I3
I85
tp2472
(I4
(lp2473
I276
atp2474
s(I1
I101
tp2475
(I0
(lp2476
I50
atp2477
s(I0
I30
tp2478
(I8
(lp2479
I465
atp2480
s(I1
I128
tp2481
(I1
(lp2482
I63
atp2483
s(I5
I87
tp2484
(I6
(lp2485
I362
atp2486
s(I3
I123
tp2487
(I5
(lp2488
I300
atp2489
s(I0
I151
tp2490
(I10
(lp2491
I552
atp2492
s(I1
I31
tp2493
(I8
(lp2494
I425
atp2495
s(I5
I138
tp2496
(I7
(lp2497
I407
atp2498
s(I0
I52
tp2499
(I9
(lp2500
I539
atp2501
s(I1
I186
tp2502
(I1
(lp2503
I121
atp2504
s(I0
I141
tp2505
(I2
(lp2506
I131
atp2507
s(I1
I49
tp2508
(I8
(lp2509
I443
atp2510
s(I3
I136
tp2511
(I5
(lp2512
I313
atp2513
s(I5
I148
tp2514
(I7
(lp2515
I417
atp2516
s(I0
I42
tp2517
(I8
(lp2518
I453
atp2519
s(I5
I27
tp2520
(I9
(lp2521
I489
atp2522
s(I3
I39
tp2523
(I3
(lp2524
I230
atp2525
s(I0
I163
tp2526
(I11
(lp2527
I621
atp2528
s(I1
I43
tp2529
(I8
(lp2530
I437
atp2531
s(I3
I174
tp2532
(I11
(lp2533
I633
atp2534
s(I0
I64
tp2535
(I9
(lp2536
I527
atp2537
s(I5
I37
tp2538
(I9
(lp2539
I499
atp2540
s(I3
I180
tp2541
(I11
(lp2542
I639
atp2543
s(I1
I68
tp2544
(I0
(lp2545
I17
atp2546
s(I0
I102
tp2547
(I2
(lp2548
I170
atp2549
s(I3
I90
tp2550
(I4
(lp2551
I281
atp2552
s(I1
I126
tp2553
(I1
(lp2554
I61
atp2555
s(I0
I21
tp2556
(I8
(lp2557
I474
atp2558
s(I1
I153
tp2559
(I1
(lp2560
I88
atp2561
s(I5
I80
tp2562
(I6
(lp2563
I355
atp2564
s(I3
I96
tp2565
(I4
(lp2566
I287
atp2567
s(I1
I179
tp2568
(I1
(lp2569
I114
atp2570
s(I5
I122
tp2571
(I7
(lp2572
I391
atp2573
s(I0
I132
tp2574
(I2
(lp2575
I140
atp2576
s(I5
I157
tp2577
(I10
(lp2578
I563
atp2579
s(I0
I33
tp2580
(I8
(lp2581
I462
atp2582
s(I3
I44
tp2583
(I3
(lp2584
I235
atp2585
s(I0
I186
tp2586
(I11
(lp2587
I598
atp2588
s(I1
I44
tp2589
(I8
(lp2590
I438
atp2591
s(I3
I151
tp2592
(I5
(lp2593
I328
atp2594
s(I5
I167
tp2595
(I10
(lp2596
I573
atp2597
s(I0
I71
tp2598
(I2
(lp2599
I201
atp2600
s(I5
I46
tp2601
(I9
(lp2602
I508
atp2603
s(I3
I50
tp2604
(I3
(lp2605
I241
atp2606
s(I3
I189
tp2607
(I11
(lp2608
I648
atp2609
s(I1
I93
tp2610
(I0
(lp2611
I42
atp2612
s(I0
I125
tp2613
(I2
(lp2614
I147
atp2615
s(I3
I67
tp2616
(I4
(lp2617
I258
atp2618
s(I1
I119
tp2619
(I1
(lp2620
I54
atp2621
s(I1
I146
tp2622
(I1
(lp2623
I81
atp2624
s(I5
I89
tp2625
(I6
(lp2626
I364
atp2627
s(I1
I180
tp2628
(I1
(lp2629
I115
atp2630
s(I5
I99
tp2631
(I6
(lp2632
I374
atp2633
s(I0
I155
tp2634
(I10
(lp2635
I548
atp2636
s(I5
I134
tp2637
(I7
(lp2638
I403
atp2639
s(I0
I56
tp2640
(I9
(lp2641
I535
atp2642
s(I1
I174
tp2643
(I1
(lp2644
I109
atp2645
s(I3
I21
tp2646
(I3
(lp2647
I212
atp2648
s(I0
I177
tp2649
(I11
(lp2650
I607
atp2651
s(I1
I37
tp2652
(I8
(lp2653
I431
atp2654
s(I3
I156
tp2655
(I5
(lp2656
I333
atp2657
s(I5
I160
tp2658
(I10
(lp2659
I566
atp2660
s(I0
I94
tp2661
(I2
(lp2662
I178
atp2663
s(I5
I23
tp2664
(I9
(lp2665
I485
atp2666
s(I3
I59
tp2667
(I4
(lp2668
I250
atp2669
s(I3
I162
tp2670
(I5
(lp2671
I339
atp2672
s(I1
I86
tp2673
(I0
(lp2674
I35
atp2675
s(I0
I116
tp2676
(I2
(lp2677
I156
atp2678
s(I5
I49
tp2679
(I9
(lp2680
I511
atp2681
s(I3
I72
tp2682
(I4
(lp2683
I263
atp2684
s(I1
I72
tp2685
(I0
(lp2686
I21
atp2687
s(I0
I106
tp2688
(I2
(lp2689
I166
atp2690
s(I5
I66
tp2691
(I6
(lp2692
I341
atp2693
s(I1
I98
tp2694
(I0
(lp2695
I47
atp2696
s(I0
I25
tp2697
(I8
(lp2698
I470
atp2699
s(I1
I141
tp2700
(I1
(lp2701
I76
atp2702
s(I5
I108
tp2703
(I6
(lp2704
I383
atp2705
s(I0
I146
tp2706
(I2
(lp2707
I126
atp2708
s(I5
I143
tp2709
(I7
(lp2710
I412
atp2711
s(I0
I63
tp2712
(I9
(lp2713
I528
atp2714
s(I1
I167
tp2715
(I1
(lp2716
I102
atp2717
s(I5
I118
tp2718
(I7
(lp2719
I387
atp2720
s(I3
I26
tp2721
(I3
(lp2722
I217
atp2723
s(I0
I136
tp2724
(I2
(lp2725
I136
atp2726
s(I1
I62
tp2727
(I0
(lp2728
I11
atp2729
s(I3
I133
tp2730
(I5
(lp2731
I310
atp2732
s(I5
I169
tp2733
(I10
(lp2734
I575
atp2735
s(I0
I85
tp2736
(I2
(lp2737
I187
atp2738
s(I3
I32
tp2739
(I3
(lp2740
I223
atp2741
s(I0
I174
tp2742
(I11
(lp2743
I610
atp2744
s(I3
I171
tp2745
(I11
(lp2746
I630
atp2747
s(I5
I179
tp2748
(I10
(lp2749
I585
atp2750
s(I0
I75
tp2751
(I2
(lp2752
I197
atp2753
s(I5
I58
tp2754
(I9
(lp2755
I520
atp2756
s(I3
I177
tp2757
(I11
(lp2758
I636
atp2759
s(I1
I65
tp2760
(I0
(lp2761
I14
atp2762
s(I0
I97
tp2763
(I2
(lp2764
I175
atp2765
s(I5
I75
tp2766
(I6
(lp2767
I350
atp2768
s(I3
I87
tp2769
(I4
(lp2770
I278
atp2771
s(I1
I123
tp2772
(I1
(lp2773
I58
atp2774
s(I1
I134
tp2775
(I1
(lp2776
I69
atp2777
s(I5
I85
tp2778
(I6
(lp2779
I360
atp2780
s(I3
I125
tp2781
(I5
(lp2782
I302
atp2783
s(I1
I29
tp2784
(I8
(lp2785
I423
atp2786
s(I5
I136
tp2787
(I7
(lp2788
I405
atp2789
s(I0
I54
tp2790
(I9
(lp2791
I537
atp2792
s(I1
I184
tp2793
(I1
(lp2794
I119
atp2795
s(I5
I127
tp2796
(I7
(lp2797
I396
atp2798
s(I0
I143
tp2799
(I2
(lp2800
I129
atp2801
s(I1
I55
tp2802
(I0
(lp2803
I4
atp2804
s(I3
I138
tp2805
(I5
(lp2806
I315
atp2807
s(I5
I146
tp2808
(I7
(lp2809
I415
atp2810
s(I0
I44
tp2811
(I8
(lp2812
I451
atp2813
s(I5
I25
tp2814
(I9
(lp2815
I487
atp2816
s(I3
I41
tp2817
(I3
(lp2818
I232
atp2819
s(I0
I165
tp2820
(I11
(lp2821
I619
atp2822
s(I1
I41
tp2823
(I8
(lp2824
I435
atp2825
s(I3
I144
tp2826
(I5
(lp2827
I321
atp2828
s(I0
I66
tp2829
(I2
(lp2830
I206
atp2831
s(I5
I35
tp2832
(I9
(lp2833
I497
atp2834
s(I3
I182
tp2835
(I11
(lp2836
I641
atp2837
s(I1
I90
tp2838
(I0
(lp2839
I39
atp2840
s(I0
I120
tp2841
(I2
(lp2842
I152
atp2843
s(I3
I92
tp2844
(I4
(lp2845
I283
atp2846
s(I1
I124
tp2847
(I1
(lp2848
I59
atp2849
s(I0
I23
tp2850
(I8
(lp2851
I472
atp2852
s(I1
I159
tp2853
(I1
(lp2854
I94
atp2855
s(I5
I94
tp2856
(I6
(lp2857
I369
atp2858
s(I3
I98
tp2859
(I4
(lp2860
I289
atp2861
s(I1
I177
tp2862
(I1
(lp2863
I112
atp2864
s(I5
I120
tp2865
(I7
(lp2866
I389
atp2867
s(I0
I134
tp2868
(I2
(lp2869
I138
atp2870
s(I5
I155
tp2871
(I10
(lp2872
I561
atp2873
s(I0
I35
tp2874
(I8
(lp2875
I460
atp2876
s(I1
I171
tp2877
(I1
(lp2878
I106
atp2879
s(I3
I46
tp2880
(I3
(lp2881
I237
atp2882
s(I0
I188
tp2883
(I11
(lp2884
I596
atp2885
s(I1
I34
tp2886
(I8
(lp2887
I428
atp2888
s(I3
I153
tp2889
(I5
(lp2890
I330
atp2891
s(I5
I165
tp2892
(I10
(lp2893
I571
atp2894
s(I0
I89
tp2895
(I2
(lp2896
I183
atp2897
s(I5
I44
tp2898
(I9
(lp2899
I506
atp2900
s(I3
I52
tp2901
(I3
(lp2902
I243
atp2903
s(I3
I191
tp2904
(I11
(lp2905
I650
atp2906
s(I1
I83
tp2907
(I0
(lp2908
I32
atp2909
s(I0
I127
tp2910
(I2
(lp2911
I145
atp2912
s(I5
I54
tp2913
(I9
(lp2914
I516
atp2915
s(I3
I69
tp2916
(I4
(lp2917
I260
atp2918
s(I1
I144
tp2919
(I1
(lp2920
I79
atp2921
s(I5
I71
tp2922
(I6
(lp2923
I346
atp2924
s(I1
I138
tp2925
(I1
(lp2926
I73
atp2927
s(I5
I97
tp2928
(I6
(lp2929
I372
atp2930
s(I0
I157
tp2931
(I10
(lp2932
I546
atp2933
s(I5
I132
tp2934
(I7
(lp2935
I401
atp2936
s(I0
I58
tp2937
(I9
(lp2938
I533
atp2939
s(I1
I172
tp2940
(I1
(lp2941
I107
atp2942
s(I3
I23
tp2943
(I3
(lp2944
I214
atp2945
s(I0
I179
tp2946
(I11
(lp2947
I605
atp2948
s(I1
I59
tp2949
(I0
(lp2950
I8
atp2951
s(I3
I158
tp2952
(I5
(lp2953
I335
atp2954
s(I5
I174
tp2955
(I10
(lp2956
I580
atp2957
s(I0
I80
tp2958
(I2
(lp2959
I192
atp2960
s(I5
I21
tp2961
(I9
(lp2962
I483
atp2963
s(I3
I61
tp2964
(I4
(lp2965
I252
atp2966
s(I0
I169
tp2967
(I11
(lp2968
I615
atp2969
s(I3
I164
tp2970
(I11
(lp2971
I623
atp2972
s(I1
I84
tp2973
(I0
(lp2974
I33
atp2975
s(I0
I118
tp2976
(I2
(lp2977
I154
atp2978
s(I5
I63
tp2979
(I9
(lp2980
I525
atp2981
s(I3
I74
tp2982
(I4
(lp2983
I265
atp2984
s(I1
I78
tp2985
(I0
(lp2986
I27
atp2987
s(I0
I108
tp2988
(I2
(lp2989
I164
atp2990
s(I5
I64
tp2991
(I9
(lp2992
I526
atp2993
s(I3
I80
tp2994
(I4
(lp2995
I271
atp2996
s(I1
I96
tp2997
(I0
(lp2998
I45
atp2999
s(I0
I27
tp3000
(I8
(lp3001
I468
atp3002
s(I1
I131
tp3003
(I1
(lp3004
I66
atp3005
s(I5
I106
tp3006
(I6
(lp3007
I381
atp3008
s(I0
I148
tp3009
(I2
(lp3010
I124
atp3011
s(I1
I26
tp3012
(I8
(lp3013
I420
atp3014
s(I5
I141
tp3015
(I7
(lp3016
I410
atp3017
s(I0
I49
tp3018
(I8
(lp3019
I446
atp3020
s(I1
I165
tp3021
(I1
(lp3022
I100
atp3023
s(I5
I116
tp3024
(I7
(lp3025
I385
atp3026
s(I3
I28
tp3027
(I3
(lp3028
I219
atp3029
s(I0
I138
tp3030
(I2
(lp3031
I134
atp3032
s(I1
I60
tp3033
(I0
(lp3034
I9
atp3035
s(I3
I135
tp3036
(I5
(lp3037
I312
atp3038
s(I5
I151
tp3039
(I10
(lp3040
I557
atp3041
s(I0
I87
tp3042
(I2
(lp3043
I185
atp3044
s(I5
I30
tp3045
(I9
(lp3046
I492
atp3047
s(I3
I34
tp3048
(I3
(lp3049
I225
atp3050
s(I0
I160
tp3051
(I10
(lp3052
I543
atp3053
s(I3
I173
tp3054
(I11
(lp3055
I632
atp3056
s(I5
I177
tp3057
(I10
(lp3058
I583
atp3059
s(I0
I77
tp3060
(I2
(lp3061
I195
atp3062
s(I5
I56
tp3063
(I9
(lp3064
I518
atp3065
s(I3
I179
tp3066
(I11
(lp3067
I638
atp3068
s(I1
I71
tp3069
(I0
(lp3070
I20
atp3071
s(I0
I99
tp3072
(I2
(lp3073
I173
atp3074
s(I5
I73
tp3075
(I6
(lp3076
I348
atp3077
s(I3
I89
tp3078
(I4
(lp3079
I280
atp3080
s(I1
I121
tp3081
(I1
(lp3082
I56
atp3083
s(I3
I192
tp3084
(I11
(lp3085
I651
atp3086
s(I0
I18
tp3087
(I8
(lp3088
I477
atp3089
s(I1
I132
tp3090
(I1
(lp3091
I67
atp3092
s(I5
I83
tp3093
(I6
(lp3094
I358
atp3095
s(I3
I127
tp3096
(I5
(lp3097
I304
atp3098
s(I5
I125
tp3099
(I7
(lp3100
I394
atp3101
s(I0
I129
tp3102
(I2
(lp3103
I143
atp3104
s(I1
I53
tp3105
(I0
(lp3106
I2
atp3107
s(I3
I140
tp3108
(I5
(lp3109
I317
atp3110
s(I5
I144
tp3111
(I7
(lp3112
I413
atp3113
s(I0
I46
tp3114
(I8
(lp3115
I449
atp3116
s(I3
I43
tp3117
(I3
(lp3118
I234
atp3119
s(I0
I167
tp3120
(I11
(lp3121
I617
atp3122
s(I1
I47
tp3123
(I8
(lp3124
I441
atp3125
s(I3
I146
tp3126
(I5
(lp3127
I323
atp3128
s(I0
I68
tp3129
(I2
(lp3130
I204
atp3131
s(I5
I33
tp3132
(I9
(lp3133
I495
atp3134
s(I3
I49
tp3135
(I3
(lp3136
I240
atp3137
s(I3
I184
tp3138
(I11
(lp3139
I643
atp3140
s(I1
I88
tp3141
(I0
(lp3142
I37
atp3143
s(I0
I122
tp3144
(I2
(lp3145
I150
atp3146
s(I3
I94
tp3147
(I4
(lp3148
I285
atp3149
s(I1
I157
tp3150
(I1
(lp3151
I92
atp3152
s(I5
I92
tp3153
(I6
(lp3154
I367
atp3155
s(I3
I100
tp3156
(I4
(lp3157
I291
atp3158
s(I1
I183
tp3159
(I1
(lp3160
I118
atp3161
s(I5
I102
tp3162
(I6
(lp3163
I377
atp3164
s(I0
I152
tp3165
(I10
(lp3166
I551
atp3167
s(I5
I153
tp3168
(I10
(lp3169
I559
atp3170
s(I0
I37
tp3171
(I8
(lp3172
I458
atp3173
s(I1
I169
tp3174
(I1
(lp3175
I104
atp3176
s(I0
I190
tp3177
(I11
(lp3178
I594
atp3179
s(I1
I32
tp3180
(I8
(lp3181
I426
atp3182
s(I3
I155
tp3183
(I5
(lp3184
I332
atp3185
s(I5
I163
tp3186
(I10
(lp3187
I569
atp3188
s(I0
I91
tp3189
(I2
(lp3190
I181
atp3191
s(I5
I42
tp3192
(I9
(lp3193
I504
atp3194
s(I3
I54
tp3195
(I3
(lp3196
I245
atp3197
s(I3
I161
tp3198
(I5
(lp3199
I338
atp3200
s(I1
I81
tp3201
(I0
(lp3202
I30
atp3203
s(I0
I113
tp3204
(I2
(lp3205
I159
atp3206
s(I5
I52
tp3207
(I9
(lp3208
I514
atp3209
s(I3
I71
tp3210
(I4
(lp3211
I262
atp3212
s(I1
I75
tp3213
(I0
(lp3214
I24
atp3215
s(I1
I150
tp3216
(I1
(lp3217
I85
atp3218
s(I5
I69
tp3219
(I6
(lp3220
I344
atp3221
s(I1
I136
tp3222
(I1
(lp3223
I71
atp3224
s(I0
I159
tp3225
(I10
(lp3226
I544
atp3227
s(I5
I130
tp3228
(I7
(lp3229
I399
atp3230
s(I0
I60
tp3231
(I9
(lp3232
I531
atp3233
s(I1
I162
tp3234
(I1
(lp3235
I97
atp3236
s(I3
I25
tp3237
(I3
(lp3238
I216
atp3239
s(I0
I181
tp3240
(I11
(lp3241
I603
atp3242
s(I1
I57
tp3243
(I0
(lp3244
I6
atp3245
s(I3
I128
tp3246
(I5
(lp3247
I305
atp3248
s(I5
I172
tp3249
(I10
(lp3250
I578
atp3251
s(I0
I82
tp3252
(I2
(lp3253
I190
atp3254
s(I5
I19
tp3255
(I9
(lp3256
I481
atp3257
s(I3
I63
tp3258
(I4
(lp3259
I254
atp3260
s(I0
I171
tp3261
(I11
(lp3262
I613
atp3263
s(I3
I166
tp3264
(I11
(lp3265
I625
atp3266
s(I5
I182
tp3267
(I10
(lp3268
I588
atp3269
s(I0
I72
tp3270
(I2
(lp3271
I200
atp3272
s(I5
I61
tp3273
(I9
(lp3274
I523
atp3275
s(I3
I76
tp3276
(I4
(lp3277
I267
atp3278
s(I1
I76
tp3279
(I0
(lp3280
I25
atp3281
s(I0
I110
tp3282
(I2
(lp3283
I162
atp3284
s(I5
I78
tp3285
(I6
(lp3286
I353
atp3287
s(I3
I82
tp3288
(I4
(lp3289
I273
atp3290
s(I1
I102
tp3291
(I0
(lp3292
I51
atp3293
s(I0
I29
tp3294
(I8
(lp3295
I466
atp3296
s(I1
I129
tp3297
(I1
(lp3298
I64
atp3299
s(I5
I104
tp3300
(I6
(lp3301
I379
atp3302
s(I3
I120
tp3303
(I5
(lp3304
I297
atp3305
s(I0
I150
tp3306
(I10
(lp3307
I553
atp3308
s(I1
I24
tp3309
(I8
(lp3310
I418
atp3311
s(I5
I139
tp3312
(I7
(lp3313
I408
atp3314
s(I0
I51
tp3315
(I9
(lp3316
I540
atp3317
s(I1
I187
tp3318
(I1
(lp3319
I122
atp3320
s(I3
I30
tp3321
(I3
(lp3322
I221
atp3323
s(I0
I140
tp3324
(I2
(lp3325
I132
atp3326
s(I1
I50
tp3327
(I8
(lp3328
I444
atp3329
s(I3
I137
tp3330
(I5
(lp3331
I314
atp3332
s(I5
I149
tp3333
(I10
(lp3334
I555
atp3335
s(I0
I41
tp3336
(I8
(lp3337
I454
atp3338
s(I5
I28
tp3339
(I9
(lp3340
I490
atp3341
s(I3
I36
tp3342
(I3
(lp3343
I227
atp3344
s(I0
I162
tp3345
(I10
(lp3346
I541
atp3347
s(I3
I175
tp3348
(I11
(lp3349
I634
atp3350
s(I0
I79
tp3351
(I2
(lp3352
I193
atp3353
s(I5
I38
tp3354
(I9
(lp3355
I500
atp3356
s(I3
I181
tp3357
(I11
(lp3358
I640
atp3359
s(I1
I69
tp3360
(I0
(lp3361
I18
atp3362
s(I0
I101
tp3363
(I2
(lp3364
I171
atp3365
s(I3
I91
tp3366
(I4
(lp3367
I282
atp3368
s(I1
I127
tp3369
(I1
(lp3370
I62
atp3371
s(I0
I20
tp3372
(I8
(lp3373
I475
atp3374
s(I1
I154
tp3375
(I1
(lp3376
I89
atp3377
s(I5
I81
tp3378
(I6
(lp3379
I356
atp3380
s(I3
I97
tp3381
(I4
(lp3382
I288
atp3383
s(I1
I188
tp3384
(I1
(lp3385
I123
atp3386
s(I5
I123
tp3387
(I7
(lp3388
I392
atp3389
s(I0
I131
tp3390
(I2
(lp3391
I141
atp3392
s(I3
I142
tp3393
(I5
(lp3394
I319
atp3395
s(I5
I158
tp3396
(I10
(lp3397
I564
atp3398
s(I0
I32
tp3399
(I8
(lp3400
I463
atp3401
s(I3
I45
tp3402
(I3
(lp3403
I236
atp3404
s(I0
I185
tp3405
(I11
(lp3406
I599
atp3407
s(I1
I45
tp3408
(I8
(lp3409
I439
atp3410
s(I3
I148
tp3411
(I5
(lp3412
I325
atp3413
s(I5
I184
tp3414
(I10
(lp3415
I590
atp3416
s(I0
I70
tp3417
(I2
(lp3418
I202
atp3419
s(I5
I47
tp3420
(I9
(lp3421
I509
atp3422
s(I3
I51
tp3423
(I3
(lp3424
I242
atp3425
s(I3
I186
tp3426
(I11
(lp3427
I645
atp3428
s(I1
I94
tp3429
(I0
(lp3430
I43
atp3431
s(I0
I124
tp3432
(I2
(lp3433
I148
atp3434
s(I3
I64
tp3435
(I4
(lp3436
I255
atp3437
s(I1
I147
tp3438
(I1
(lp3439
I82
atp3440
s(I5
I90
tp3441
(I6
(lp3442
I365
atp3443
s(I3
I102
tp3444
(I4
(lp3445
I293
atp3446
s(I1
I181
tp3447
(I1
(lp3448
I116
atp3449
s(I5
I100
tp3450
(I6
(lp3451
I375
atp3452
s(I0
I154
tp3453
(I10
(lp3454
I549
atp3455
s(I5
I135
tp3456
(I7
(lp3457
I404
atp3458
s(I0
I39
tp3459
(I8
(lp3460
I456
atp3461
s(I1
I175
tp3462
(I1
(lp3463
I110
atp3464
s(I3
I18
tp3465
(I3
(lp3466
I209
atp3467
s(I0
I176
tp3468
(I11
(lp3469
I608
atp3470
s(I1
I38
tp3471
(I8
(lp3472
I432
atp3473
s(I3
I157
tp3474
(I5
(lp3475
I334
atp3476
s(I5
I161
tp3477
(I10
(lp3478
I567
atp3479
s(I0
I93
tp3480
(I2
(lp3481
I179
atp3482
s(I5
I40
tp3483
(I9
(lp3484
I502
atp3485
s(I3
I56
tp3486
(I4
(lp3487
I247
atp3488
s(I3
I163
tp3489
(I11
(lp3490
I622
atp3491
s(I1
I87
tp3492
(I0
(lp3493
I36
atp3494
s(I0
I115
tp3495
(I2
(lp3496
I157
atp3497
s(I5
I50
tp3498
(I9
(lp3499
I512
atp3500
s(I3
I73
tp3501
(I4
(lp3502
I264
atp3503
s(I1
I73
tp3504
(I0
(lp3505
I22
atp3506
s(I0
I105
tp3507
(I2
(lp3508
I167
atp3509
s(I1
I148
tp3510
(I1
(lp3511
I83
atp3512
s(I5
I67
tp3513
(I6
(lp3514
I342
atp3515
s(I1
I99
tp3516
(I0
(lp3517
I48
atp3518
s(I0
I24
tp3519
(I8
(lp3520
I471
atp3521
s(I1
I142
tp3522
(I1
(lp3523
I77
atp3524
s(I0
I145
tp3525
(I2
(lp3526
I127
atp3527
s(I5
I128
tp3528
(I7
(lp3529
I397
atp3530
s(I0
I62
tp3531
(I9
(lp3532
I529
atp3533
s(I1
I160
tp3534
(I1
(lp3535
I95
atp3536
s(I5
I119
tp3537
(I7
(lp3538
I388
atp3539
s(I3
I27
tp3540
(I3
(lp3541
I218
atp3542
s(I0
I183
tp3543
(I11
(lp3544
I601
atp3545
s(I1
I63
tp3546
(I0
(lp3547
I12
atp3548
s(I3
I130
tp3549
(I5
(lp3550
I307
atp3551
s(I5
I170
tp3552
(I10
(lp3553
I576
atp3554
s(I0
I84
tp3555
(I2
(lp3556
I188
atp3557
s(I5
I17
tp3558
(I9
(lp3559
I479
atp3560
s(I3
I33
tp3561
(I3
(lp3562
I224
atp3563
s(I0
I173
tp3564
(I11
(lp3565
I611
atp3566
s(I3
I168
tp3567
(I11
(lp3568
I627
atp3569
s(I5
I180
tp3570
(I10
(lp3571
I586
atp3572
s(I0
I74
tp3573
(I2
(lp3574
I198
atp3575
s(I5
I59
tp3576
(I9
(lp3577
I521
atp3578
s(I3
I78
tp3579
(I4
(lp3580
I269
atp3581
s(I1
I66
tp3582
(I0
(lp3583
I15
atp3584
s(I0
I96
tp3585
(I2
(lp3586
I176
atp3587
s(I5
I76
tp3588
(I6
(lp3589
I351
atp3590
s(I3
I84
tp3591
(I4
(lp3592
I275
atp3593
s(I1
I100
tp3594
(I0
(lp3595
I49
atp3596
s(I0
I31
tp3597
(I8
(lp3598
I464
atp3599
s(I1
I135
tp3600
(I1
(lp3601
I70
atp3602
s(I5
I86
tp3603
(I6
(lp3604
I361
atp3605
s(I3
I122
tp3606
(I5
(lp3607
I299
atp3608
s(I1
I30
tp3609
(I8
(lp3610
I424
atp3611
s(I5
I137
tp3612
(I7
(lp3613
I406
atp3614
s(I0
I53
tp3615
(I9
(lp3616
I538
atp3617
s(I1
I185
tp3618
(I1
(lp3619
I120
atp3620
s(I0
I142
tp3621
(I2
(lp3622
I130
atp3623
s(I1
I48
tp3624
(I8
(lp3625
I442
atp3626
s(I3
I139
tp3627
(I5
(lp3628
I316
atp3629
s(I5
I147
tp3630
(I7
(lp3631
I416
atp3632
s(I0
I43
tp3633
(I8
(lp3634
I452
atp3635
s(I5
I26
tp3636
(I9
(lp3637
I488
atp3638
s(I3
I38
tp3639
(I3
(lp3640
I229
atp3641
s(I0
I164
tp3642
(I11
(lp3643
I620
atp3644
s(I1
I42
tp3645
(I8
(lp3646
I436
atp3647
s(I3
I145
tp3648
(I5
(lp3649
I322
atp3650
s(I0
I65
tp3651
(I2
(lp3652
I207
atp3653
s(I5
I36
tp3654
(I9
(lp3655
I498
atp3656
s(I3
I183
tp3657
(I11
(lp3658
I642
atp3659
s(I1
I91
tp3660
(I0
(lp3661
I40
atp3662
s(I0
I103
tp3663
(I2
(lp3664
I169
atp3665
s(I3
I93
tp3666
(I4
(lp3667
I284
atp3668
s(I1
I125
tp3669
(I1
(lp3670
I60
atp3671
s(I0
I22
tp3672
(I8
(lp3673
I473
atp3674
s(I1
I152
tp3675
(I1
(lp3676
I87
atp3677
s(I5
I95
tp3678
(I6
(lp3679
I370
atp3680
s(I3
I99
tp3681
(I4
(lp3682
I290
atp3683
s(I1
I178
tp3684
(I1
(lp3685
I113
atp3686
s(I5
I121
tp3687
(I7
(lp3688
I390
atp3689
s(I0
I133
tp3690
(I2
(lp3691
I139
atp3692
s(I5
I156
tp3693
(I10
(lp3694
I562
atp3695
s(I0
I34
tp3696
(I8
(lp3697
I461
atp3698
s(I3
I47
tp3699
(I3
(lp3700
I238
atp3701
s(I0
I187
tp3702
(I11
(lp3703
I597
atp3704
s(I1
I35
tp3705
(I8
(lp3706
I429
atp3707
s(I3
I150
tp3708
(I5
(lp3709
I327
atp3710
s(I5
I166
tp3711
(I10
(lp3712
I572
atp3713
s(I0
I88
tp3714
(I2
(lp3715
I184
atp3716
s(I5
I45
tp3717
(I9
(lp3718
I507
atp3719
s(I3
I53
tp3720
(I3
(lp3721
I244
atp3722
s(I3
I188
tp3723
(I11
(lp3724
I647
atp3725
s(I1
I92
tp3726
(I0
(lp3727
I41
atp3728
s(I0
I126
tp3729
(I2
(lp3730
I146
atp3731
s(I5
I55
tp3732
(I9
(lp3733
I517
atp3734
s(I3
I66
tp3735
(I4
(lp3736
I257
atp3737
s(I1
I145
tp3738
(I1
(lp3739
I80
atp3740
s(I5
I88
tp3741
(I6
(lp3742
I363
atp3743
s(I3
I104
tp3744
(I4
(lp3745
I295
atp3746
s(I1
I104
tp3747
(I0
(lp3748
I53
atp3749
s(I1
I139
tp3750
(I1
(lp3751
I74
atp3752
s(I5
I98
tp3753
(I6
(lp3754
I373
atp3755
s(I0
I156
tp3756
(I10
(lp3757
I547
atp3758
s(I5
I133
tp3759
(I7
(lp3760
I402
atp3761
s(I0
I57
tp3762
(I9
(lp3763
I534
atp3764
s(I1
I173
tp3765
(I1
(lp3766
I108
atp3767
s(I3
I20
tp3768
(I3
(lp3769
I211
atp3770
s(I0
I178
tp3771
(I11
(lp3772
I606
atp3773
s(I1
I36
tp3774
(I8
(lp3775
I430
atp3776
s(I3
I159
tp3777
(I5
(lp3778
I336
atp3779
s(I5
I175
tp3780
(I10
(lp3781
I581
atp3782
s(I0
I95
tp3783
(I2
(lp3784
I177
atp3785
s(I5
I22
tp3786
(I9
(lp3787
I484
atp3788
s(I3
I58
tp3789
(I4
(lp3790
I249
atp3791
s(I0
I168
tp3792
(I11
(lp3793
I616
atp3794
s(I3
I165
tp3795
(I11
(lp3796
I624
atp3797
s(I1
I85
tp3798
(I0
(lp3799
I34
atp3800
s(I0
I117
tp3801
(I2
(lp3802
I155
atp3803
s(I5
I48
tp3804
(I9
(lp3805
I510
atp3806
s(I3
I75
tp3807
(I4
(lp3808
I266
atp3809
s(I1
I79
tp3810
(I0
(lp3811
I28
atp3812
s(I0
I107
tp3813
(I2
(lp3814
I165
atp3815
s(I5
I65
tp3816
(I6
(lp3817
I340
atp3818
s(I3
I81
tp3819
(I4
(lp3820
I272
atp3821
s(I1
I97
tp3822
(I0
(lp3823
I46
atp3824
s(I0
I26
tp3825
(I8
(lp3826
I469
atp3827
s(I1
I140
tp3828
(I1
(lp3829
I75
atp3830
s(I5
I107
tp3831
(I6
(lp3832
I382
atp3833
s(I3
I119
tp3834
(I5
(lp3835
I296
atp3836
s(I0
I147
tp3837
(I2
(lp3838
I125
atp3839
s(I1
I27
tp3840
(I8
(lp3841
I421
atp3842
s(I5
I142
tp3843
(I7
(lp3844
I411
atp3845
s(I0
I48
tp3846
(I8
(lp3847
I447
atp3848
s(I1
I166
tp3849
(I1
(lp3850
I101
atp3851
s(I5
I117
tp3852
(I7
(lp3853
I386
atp3854
s(I3
I29
tp3855
(I3
(lp3856
I220
atp3857
s(I0
I137
tp3858
(I2
(lp3859
I135
atp3860
s(I1
I61
tp3861
(I0
(lp3862
I10
atp3863
s(I3
I132
tp3864
(I5
(lp3865
I309
atp3866
s(I5
I168
tp3867
(I10
(lp3868
I574
atp3869
ssb(dp3870
I0
(I14
I16
tp3871
sI1
(I13
I16
tp3872
sI3
(I14
I15
tp3873
sI5
(I14
I17
tp3874
stp3875
.